target datalayout = "e-m:e-p270:32:32-p271:32:32-p272:64:64-i64:64-i128:128-f80:128-n8:16:32:64-S128"
target triple = "x86_64-pc-linux-gnu"

; Function Attrs: mustprogress nounwind uwtable
define dso_local noundef i32 @_ZN4llvm13ScaledNumbers11compareImplEmmi(i64 noundef %0, i64 noundef %1, i32 noundef %2) #0 {
  %4 = alloca i32, align 4
  %5 = alloca i64, align 8
  %6 = alloca i64, align 8
  %7 = alloca i32, align 4
  %8 = alloca i64, align 8
  store i64 %0, ptr %5, align 8
  store i64 %1, ptr %6, align 8
  store i32 %2, ptr %7, align 4
  %9 = load i64, ptr %5, align 8
  %10 = load i32, ptr %7, align 4
  %11 = zext i32 %10 to i64
  %12 = lshr i64 %9, %11
  store i64 %12, ptr %8, align 8
  %13 = load i64, ptr %8, align 8
  %14 = load i64, ptr %6, align 8
  %15 = icmp ult i64 %13, %14
  br i1 %15, label %16, label %17

16:                                               ; preds = %3
  store i32 -1, ptr %4, align 4
  br label %30

17:                                               ; preds = %3
  %18 = load i64, ptr %8, align 8
  %19 = load i64, ptr %6, align 8
  %20 = icmp ugt i64 %18, %19
  br i1 %20, label %21, label %22

21:                                               ; preds = %17
  store i32 1, ptr %4, align 4
  br label %30

22:                                               ; preds = %17
  %23 = load i64, ptr %5, align 8
  %24 = load i64, ptr %8, align 8
  %25 = load i32, ptr %7, align 4
  %26 = zext i32 %25 to i64
  %27 = shl i64 %24, %26
  %28 = icmp ugt i64 %23, %27
  %29 = select i1 %28, i32 1, i32 0
  store i32 %29, ptr %4, align 4
  br label %30

30:                                               ; preds = %22, %21, %16
  %31 = load i32, ptr %4, align 4
  ret i32 %31
}