; Function Attrs: mustprogress nofree norecurse nosync nounwind willreturn memory(none) uwtable
define dso_local noundef range(i32 -1, 2) i32 @_ZN4llvm13ScaledNumbers11compareImplEmmi(i64 noundef %0, i64 noundef %1, i32 noundef %2) local_unnamed_addr #0 {
  %4 = zext i32 %2 to i64
  %5 = lshr i64 %0, %4
  %6 = icmp ult i64 %5, %1
  br i1 %6, label %13, label %7

7:                                                ; preds = %3
  %8 = icmp ugt i64 %5, %1
  br i1 %8, label %13, label %9

9:                                                ; preds = %7
  %10 = shl i64 %5, %4
  %11 = icmp ugt i64 %0, %10
  %12 = zext i1 %11 to i32
  br label %13

13:                                               ; preds = %7, %3, %9
  %.0 = phi i32 [ %12, %9 ], [ -1, %3 ], [ 1, %7 ]
  ret i32 %.0
}